00800000 A __alt_mem_sdram_controller_0
00800000 T _start
00800034 t alt_after_alt_main
00800038 W _ZN13GenericSerial5beginEm
00800078 T setup
008000f0 T loop
008002cc t _Z41__static_initialization_and_destruction_0ii
00800324 t _GLOBAL__sub_I_flash
00800354 W _ZN5PrintC1Ev
00800354 W _ZN5PrintC2Ev
00800390 W _ZN6StreamC1Ev
00800390 W _ZN6StreamC2Ev
008003e4 W _ZN13GenericSerialC1Ev
008003e4 W _ZN13GenericSerialC2Ev
00800438 T _ZN13GenericSerial5beginEmh
00800478 T _ZN13GenericSerial9availableEv
008004c0 T _ZN13GenericSerial4peekEv
0080052c T _ZN13GenericSerial4readEv
008005a8 T _ZN13GenericSerial5flushEv
008005cc T _ZN13GenericSerial5writeEh
00800624 t _Z41__static_initialization_and_destruction_0ii
00800678 t _GLOBAL__sub_I__ZN13GenericSerial5beginEmh
008006a8 T _ZN14HardwareSerial9availableEv
008006cc T _ZN14HardwareSerial4peekEv
008006f0 T _ZN14HardwareSerial4readEv
00800738 T _ZN14HardwareSerial5flushEv
0080075c T _ZN14HardwareSerial5writeEh
008007a8 W _ZN14HardwareSerialC1EPKc
008007a8 W _ZN14HardwareSerialC2EPKc
00800808 t _Z41__static_initialization_and_destruction_0ii
00800864 t _GLOBAL__sub_I_Serial0
00800894 W _ZN9PrintableC1Ev
00800894 W _ZN9PrintableC2Ev
008008c8 T _ZN9IPAddressC1Ehhhh
008008c8 T _ZN9IPAddressC2Ehhhh
0080095c T _ZNK9IPAddress7printToER5Print
00800a30 t _Z41__static_initialization_and_destruction_0ii
00800a90 t _GLOBAL__sub_I__ZN9IPAddressC2Ev
00800ac0 W _ZN5Print5writeEPKc
00800b2c T _ZN5Print5writeEPKhj
00800bc8 T _ZN5Print5printEPKc
00800c00 T _ZN5Print5printEc
00800c50 T _ZN5Print5printEhi
00800c98 T _ZN5Print5printEmi
00800d0c T _ZN5Print7printlnEv
00800d44 T _ZN5Print7printlnEPKc
00800d9c T _ZN5Print11printNumberEmh
00800e7c T _ZN8SPIFlashC1Eht
00800e7c T _ZN8SPIFlashC2Eht
00800ec8 T _ZN8SPIFlash6selectEv
00800f24 T _ZN8SPIFlash8unselectEv
00800f68 T _ZN8SPIFlash10initializeEv
0080102c T _ZN8SPIFlash12readDeviceIdEv
0080109c T _ZN8SPIFlash7commandEhb
0080112c T _ZN8SPIFlash4busyEv
00801168 T _ZN8SPIFlash10readStatusEv
008011b8 T _ZN8SPIFlash6wakeupEv
008011fc T _Z8transferh
00801284 T _Z5beginv
008012a4 T _Z11setBitOrderh
008012cc T _Z11setDataModeh
008012f4 T _Z15setClockDividerh
0080131c W atexit
00801340 T main
0080135c T pinMode
00801474 T digitalWrite
0080152c T digitalRead
008015a0 T _ZN10__cxxabiv120__si_class_type_infoD1Ev
008015a0 T _ZN10__cxxabiv120__si_class_type_infoD2Ev
008015b0 T _ZN10__cxxabiv120__si_class_type_infoD0Ev
008015e4 T _ZNK10__cxxabiv120__si_class_type_info12__do_dyncastEiNS_17__class_type_info10__sub_kindEPKS1_PKvS4_S6_RNS1_16__dyncast_resultE
00801744 T _ZNK10__cxxabiv120__si_class_type_info20__do_find_public_srcEiPKvPKNS_17__class_type_infoES2_
008017e0 T _ZNK10__cxxabiv120__si_class_type_info11__do_upcastEPKNS_17__class_type_infoEPKvRNS1_15__upcast_resultE
00801864 T _ZNSt9type_infoD1Ev
00801864 T _ZNSt9type_infoD2Ev
00801868 T _ZNKSt9type_info14__is_pointer_pEv
00801868 T _ZNKSt9type_info15__is_function_pEv
00801870 t _ZL21size_of_encoded_valueh
00801914 t _ZL28read_encoded_value_with_basehjPKhPj
00801b20 t _ZL15get_ttype_entryP16lsda_header_infom
00801b74 t _ZL21base_of_encoded_valuehP15_Unwind_Context
00801c00 t _ZL17parse_lsda_headerP15_Unwind_ContextPKhP16lsda_header_info
00801d34 t _ZL16get_adjusted_ptrPKSt9type_infoS1_PPv.constprop.3
00801dbc t _ZL28check_compact_exception_specPKSt9type_infoPvPKhij
00801fe8 t _ZL20check_exception_specP16lsda_header_infoPKSt9type_infoPvl
00802090 T __gxx_personality_sj0
00802690 T __cxa_call_unexpected
008028c0 T _ZdlPv
008028c4 t _ZL23__gxx_exception_cleanup19_Unwind_Reason_CodeP17_Unwind_Exception
00802908 T __cxa_throw
00802998 T __cxa_rethrow
00802a1c T __cxa_pure_virtual
00802a3c T __cxa_begin_catch
00802af0 T __cxa_end_catch
00802ba4 T _ZNK10__cxxabiv117__class_type_info11__do_upcastEPKS0_PPv
00802c1c T _ZNK10__cxxabiv117__class_type_info20__do_find_public_srcEiPKvPKS0_S2_
00802c34 T _ZN10__cxxabiv117__class_type_infoD1Ev
00802c34 T _ZN10__cxxabiv117__class_type_infoD2Ev
00802c44 T _ZN10__cxxabiv117__class_type_infoD0Ev
00802c78 T _ZNK10__cxxabiv117__class_type_info11__do_upcastEPKS0_PKvRNS0_15__upcast_resultE
00802ce4 T _ZNK10__cxxabiv117__class_type_info12__do_dyncastEiNS0_10__sub_kindEPKS0_PKvS3_S5_RNS0_16__dyncast_resultE
00802db4 T _ZNK10__cxxabiv117__class_type_info10__do_catchEPKSt9type_infoPPvj
00802e6c T _ZN10__cxxabiv111__terminateEPFvvE
00802f2c T _ZSt9terminatev
00802f44 T _ZN10__cxxabiv112__unexpectedEPFvvE
00802f54 T _ZSt10unexpectedv
00802f6c T _ZSt13get_terminatev
00802f7c T _ZSt14get_unexpectedv
00802f8c t _ZN12_GLOBAL__N_14pool4freeEPv.constprop.4
00803044 t _ZN12_GLOBAL__N_14pool8allocateEj.constprop.5
008030ec T __cxa_allocate_exception
0080314c T __cxa_free_exception
00803174 t _GLOBAL__sub_I___cxa_allocate_exception
008031d0 T __cxa_call_terminate
00803228 T __cxa_get_globals_fast
00803234 T __cxa_get_globals
00803240 T _ZNSt13bad_exceptionD1Ev
00803240 T _ZNSt13bad_exceptionD2Ev
00803244 T _ZNKSt13bad_exception4whatEv
00803250 T _ZNSt13bad_exceptionD0Ev
00803254 T __divsi3
008032d8 T __modsi3
0080334c T __udivsi3
008033b0 T __umodsi3
00803408 T __mulsi3
00803430 t _Unwind_ForcedUnwind_Phase2
00803548 t _Unwind_RaiseException_Phase2
00803608 t uw_install_context.isra.1
00803638 T _Unwind_SjLj_Register
00803650 T _Unwind_SjLj_Unregister
00803664 T _Unwind_GetGR
00803680 T _Unwind_GetCFA
00803698 T _Unwind_SetGR
008036b4 T _Unwind_GetIP
008036c4 T _Unwind_GetIPInfo
008036e4 T _Unwind_SetIP
008036f4 T _Unwind_GetLanguageSpecificData
00803700 T _Unwind_GetRegionStart
00803708 T _Unwind_FindEnclosingFunction
00803710 T _Unwind_GetDataRelBase
00803718 T _Unwind_GetTextRelBase
00803720 T _Unwind_SjLj_RaiseException
008037f0 T _Unwind_SjLj_ForcedUnwind
00803834 T _Unwind_SjLj_Resume
00803878 T _Unwind_SjLj_Resume_or_Rethrow
008038c4 T _Unwind_DeleteException
008038dc T _Unwind_Backtrace
00803950 T abort
00803968 T malloc
0080397c T free
00803990 T _malloc_r
0080419c T memcmp
00804218 T memcpy
00804360 T memset
00804488 T _sbrk_r
008044dc T _raise_r
00804598 T raise
008045ac T _kill_r
00804608 T _getpid_r
0080460c T strcmp
008046e8 T strlen
00804780 T _malloc_trim_r
008048a4 T _free_r
00804bb4 t alt_dev_null_write
00804be0 T _exit
00804c14 T getpid
00804c34 t alt_get_errno
00804c70 T kill
00804da0 T alt_main
00804e1c T __malloc_lock
00804e40 T __malloc_unlock
00804e64 t alt_get_errno
00804ea0 t alt_file_locked
00804f8c T open
008050e8 t alt_get_errno
00805124 T read
00805228 T alt_release_fd
008052ac T sbrk
0080535c T usleep
0080538c t alt_get_errno
008053c8 T write
008054c8 t alt_dev_reg
008054fc T alt_irq_init
00805534 T alt_sys_init
008055c8 T altera_avalon_jtag_uart_read_fd
00805628 T altera_avalon_jtag_uart_write_fd
00805688 T altera_avalon_jtag_uart_close_fd
008056d8 T altera_avalon_jtag_uart_ioctl_fd
0080572c T altera_avalon_jtag_uart_init
008057ec t altera_avalon_jtag_uart_irq
008059f8 t altera_avalon_jtag_uart_timeout
00805a98 T altera_avalon_jtag_uart_close
00805b00 T altera_avalon_jtag_uart_ioctl
00805bf0 T altera_avalon_jtag_uart_read
00805e0c T altera_avalon_jtag_uart_write
00806030 t alt_avalon_timer_sc_irq
008060a8 T alt_avalon_timer_sc_init
00806124 T altera_avalon_uart_read_fd
00806184 T altera_avalon_uart_write_fd
008061e4 T altera_avalon_uart_close_fd
00806234 T altera_avalon_uart_init
008062e0 t altera_avalon_uart_irq
0080637c t altera_avalon_uart_rxirq
00806460 t altera_avalon_uart_txirq
008065a8 T altera_avalon_uart_close
008065fc t alt_get_errno
00806638 T altera_avalon_uart_read
00806814 t alt_get_errno
00806850 T altera_avalon_uart_write
008069fc t alt_flash_device_register
00806a30 T alt_onchip_flash_read
00806afc T alt_onchip_flash_get_info
00806b98 T alt_onchip_flash_erase_block
00806d00 T alt_onchip_flash_write_block
00806fd8 T alt_onchip_flash_write
008072b0 T altera_onchip_flash_init
0080778c T alt_onchip_flash_poll_for_status_to_go_idle
0080781c T alt_onchip_flash_poll_for_status_erase_passed
008078ac T alt_onchip_flash_poll_for_status_write_passed
0080793c T alt_alarm_start
00807a68 T alt_busy_sleep
00807bc0 t alt_get_errno
00807bfc T close
00807cd4 T alt_dcache_flush
00807cfc t alt_get_errno
00807d38 T alt_dev_llist_insert
00807ddc T _do_ctors
00807e3c T _do_dtors
00807e9c T alt_find_dev
00807f2c T alt_find_file
00808034 T alt_get_fd
008080f8 T alt_ic_isr_register
00808148 T alt_ic_irq_enable
008081d0 T alt_ic_irq_disable
0080825c T alt_ic_irq_enabled
008082a8 T alt_iic_isr_register
00808398 t alt_open_fd
0080847c T alt_io_redirect
008084f8 T alt_alarm_stop
00808594 T alt_tick
0080869c T altera_nios2_gen2_irq_init
008086c0 T exit
008086f8 T __call_exitprocs
008088ad A __CTOR_LIST__
008088c4 A __CTOR_END__
008088c4 A __DTOR_END__
008088c4 A __DTOR_LIST__
00808a20 V _ZTV13GenericSerial
00808a40 V _ZTV6Stream
00808a60 V _ZTI13GenericSerial
00808a6c V _ZTS13GenericSerial
00808a7c V _ZTI6Stream
00808a88 V _ZTV14HardwareSerial
00808aa8 V _ZTI14HardwareSerial
00808ab4 V _ZTS14HardwareSerial
00808ad4 V _ZTV9IPAddress
00808ae0 V _ZTV9Printable
00808aec V _ZTI9IPAddress
00808af8 V _ZTS9IPAddress
00808b04 V _ZTS9Printable
00808b20 V _ZTV5Print
00808b30 V _ZTSN10__cxxabiv120__si_class_type_infoE
00808b58 V _ZTIN10__cxxabiv120__si_class_type_infoE
00808b64 V _ZTVN10__cxxabiv120__si_class_type_infoE
00808b90 V _ZTSSt9type_info
00808bdc V _ZTSN10__cxxabiv117__class_type_infoE
00808c00 V _ZTIN10__cxxabiv117__class_type_infoE
00808c0c V _ZTVN10__cxxabiv117__class_type_infoE
00808c5c V _ZTSSt9exception
00808c6c V _ZTSSt13bad_exception
00808c80 V _ZTISt13bad_exception
00808c8c V _ZTSN10__cxxabiv115__forced_unwindE
00808cac V _ZTSN10__cxxabiv119__foreign_exceptionE
00808cd0 V _ZTVSt13bad_exception
00808d48 G Pins
00808dcc g impure_data
008091f0 G __malloc_av_
008095f8 G alt_dev_null
00809620 G alt_fd_list
008097a0 g jtag_uart_0
0080a800 g uart_0
0080a8c4 g onchip_flash_0
0080a9c4 V _ZTS6Stream
0080a9cc V _ZTI9Printable
0080a9d4 V _ZTI5Print
0080a9dc V _ZTS5Print
0080a9e4 g _ZL2SS
0080a9e5 g _ZL4MOSI
0080a9e6 g _ZL4MISO
0080a9e7 g _ZL3SCK
0080a9e8 g _ZL3SDA
0080a9e9 g _ZL3SCL
0080a9ea g _ZL2A0
0080a9eb g _ZL2A1
0080a9ec g _ZL2A2
0080a9ed g _ZL2A3
0080a9ee g _ZL2A4
0080a9ef g _ZL2A5
0080a9f0 g _ZL2A6
0080a9f1 g _ZL2A7
0080a9f4 G base
0080a9f8 V _ZTISt9type_info
0080aa00 G _ZN10__cxxabiv120__unexpected_handlerE
0080aa04 V _ZTISt9exception
0080aa0c V _ZTIN10__cxxabiv115__forced_unwindE
0080aa14 V _ZTIN10__cxxabiv119__foreign_exceptionE
0080aa1c G _ZN10__cxxabiv119__terminate_handlerE
0080aa20 G _global_impure_ptr
0080aa24 G _impure_ptr
0080aa28 G __malloc_sbrk_base
0080aa2c G __malloc_trim_threshold
0080aa30 G alt_fs_list
0080aa38 G alt_dev_list
0080aa40 G alt_max_fd
0080aa44 g heap_end
0080aa48 G alt_errno
0080aa4c G alt_flash_dev_list
0080aa54 G alt_alarm_list
0080aa5c A __bss_start
0080aa5c A _edata
0080aa5c B flash
0080aa64 b _ZL11INADDR_NONE
0080aa6c b _ZL10eh_globals
0080aa74 b fc_static
0080aa78 B __malloc_max_total_mem
0080aa7c B __malloc_max_sbrked_mem
0080aa80 B __malloc_top_pad
0080aa84 B errno
0080aa88 B alt_argc
0080aa8c B alt_argv
0080aa90 B alt_envp
0080aa94 B alt_irq_active
0080aa98 B _alt_tick_rate
0080aa9c B _alt_nticks
0080aaa0 B alt_instruction_exception_handler
0080aaa4 B Serial
0080aab8 B Serial0
0080aad0 b _ZN12_GLOBAL__N_114emergency_poolE
0080aae0 B __malloc_current_mallinfo
0080ab08 B alt_irq
0080ac08 A __alt_heap_start
0080ac08 A __alt_stack_base
0080ac08 A __bss_end
0080ac08 A _end
0080ac08 a end
008129c4 A _gp
01000000 A __alt_data_end
01000000 A __alt_heap_limit
01000000 A __alt_stack_pointer
01080000 A __alt_mem_onchip_flash_0_data
01080000 T __reset
01108000 A __alt_mem_onchip_memory2_0
01108020 T alt_exception
01108020 T alt_irq_entry
011080fc T alt_irq_handler
011081d0 T alt_instruction_exception_entry
